target datalayout = "e-m:e-p270:32:32-p271:32:32-p272:64:64-i64:64-i128:128-f80:128-n8:16:32:64-S128"
target triple = "x86_64-pc-linux-gnu"

%struct.AVFilterContext = type { ptr, ptr, ptr, ptr, ptr, i32, ptr, ptr, i32, ptr, ptr, i32, i32, ptr, ptr, ptr, ptr, i32, ptr, i32, i32 }
%struct.ASetRateContext = type { ptr, i32, i32 }
%struct.AVFilterFormatsConfig = type { ptr, ptr, ptr, ptr, ptr }
%struct.AVFilterLink = type { ptr, ptr, ptr, ptr, i32, i32, i32, i32, %struct.AVRational, i32, i32, i32, %struct.AVChannelLayout, %struct.AVRational, ptr, i32, %struct.AVFilterFormatsConfig, %struct.AVFilterFormatsConfig }
%struct.AVChannelLayout = type { i32, i32, %union.anon.1, ptr }
%union.anon.1 = type { i64 }
%struct.AVRational = type { i32, i32 }

@.str.3 = private unnamed_addr constant [25 x i8] c"Time base is inaccurate\0A\00", align 1

; Function Attrs: inlinehint nounwind uwtable
define internal double @av_q2d(i64 %0) #6 {
  %2 = alloca %struct.AVRational, align 4
  store i64 %0, ptr %2, align 4
  %3 = getelementptr inbounds nuw %struct.AVRational, ptr %2, i32 0, i32 0
  %4 = load i32, ptr %3, align 4, !tbaa !56
  %5 = sitofp i32 %4 to double
  %6 = getelementptr inbounds nuw %struct.AVRational, ptr %2, i32 0, i32 1
  %7 = load i32, ptr %6, align 4, !tbaa !57
  %8 = sitofp i32 %7 to double
  %9 = fdiv nsz double %5, %8
  ret double %9
}

; Function Attrs: cold nounwind optsize uwtable
define internal i32 @config_props(ptr noundef %0) #0 {
  %2 = alloca ptr, align 8
  %3 = alloca ptr, align 8
  %4 = alloca ptr, align 8
  %5 = alloca ptr, align 8
  %6 = alloca %struct.AVRational, align 4
  %7 = alloca i32, align 4
  store ptr %0, ptr %2, align 8, !tbaa !31
  call void @llvm.lifetime.start.p0(i64 8, ptr %3) #7
  %8 = load ptr, ptr %2, align 8, !tbaa !31
  %9 = getelementptr inbounds nuw %struct.AVFilterLink, ptr %8, i32 0, i32 0
  %10 = load ptr, ptr %9, align 8, !tbaa !53
  store ptr %10, ptr %3, align 8, !tbaa !4
  call void @llvm.lifetime.start.p0(i64 8, ptr %4) #7
  %11 = load ptr, ptr %3, align 8, !tbaa !4
  %12 = getelementptr inbounds nuw %struct.AVFilterContext, ptr %11, i32 0, i32 9
  %13 = load ptr, ptr %12, align 8, !tbaa !12
  store ptr %13, ptr %4, align 8, !tbaa !24
  call void @llvm.lifetime.start.p0(i64 8, ptr %5) #7
  %14 = load ptr, ptr %3, align 8, !tbaa !4
  %15 = getelementptr inbounds nuw %struct.AVFilterContext, ptr %14, i32 0, i32 4
  %16 = load ptr, ptr %15, align 8, !tbaa !54
  %17 = getelementptr inbounds ptr, ptr %16, i64 0
  %18 = load ptr, ptr %17, align 8, !tbaa !31
  store ptr %18, ptr %5, align 8, !tbaa !31
  call void @llvm.lifetime.start.p0(i64 8, ptr %6) #7
  %19 = load ptr, ptr %3, align 8, !tbaa !4
  %20 = getelementptr inbounds nuw %struct.AVFilterContext, ptr %19, i32 0, i32 4
  %21 = load ptr, ptr %20, align 8, !tbaa !54
  %22 = getelementptr inbounds ptr, ptr %21, i64 0
  %23 = load ptr, ptr %22, align 8, !tbaa !31
  %24 = getelementptr inbounds nuw %struct.AVFilterLink, ptr %23, i32 0, i32 13
  call void @llvm.memcpy.p0.p0.i64(ptr align 4 %6, ptr align 8 %24, i64 8, i1 false), !tbaa.struct !55
  call void @llvm.lifetime.start.p0(i64 4, ptr %7) #7
  %25 = load ptr, ptr %5, align 8, !tbaa !31
  %26 = getelementptr inbounds nuw %struct.AVFilterLink, ptr %25, i32 0, i32 11
  %27 = load i32, ptr %26, align 8, !tbaa !44
  store i32 %27, ptr %7, align 4, !tbaa !28
  %28 = getelementptr inbounds nuw %struct.AVRational, ptr %6, i32 0, i32 0
  %29 = load i32, ptr %28, align 4, !tbaa !56
  %30 = icmp eq i32 %29, 1
  br i1 %30, label %31, label %46

31:                                               ; preds = %1
  %32 = getelementptr inbounds nuw %struct.AVRational, ptr %6, i32 0, i32 1
  %33 = load i32, ptr %32, align 4, !tbaa !57
  %34 = load i32, ptr %7, align 4, !tbaa !28
  %35 = icmp eq i32 %33, %34
  br i1 %35, label %36, label %46

36:                                               ; preds = %31
  %37 = load ptr, ptr %2, align 8, !tbaa !31
  %38 = getelementptr inbounds nuw %struct.AVFilterLink, ptr %37, i32 0, i32 13
  %39 = getelementptr inbounds nuw %struct.AVRational, ptr %38, i32 0, i32 0
  store i32 1, ptr %39, align 8, !tbaa !58
  %40 = load ptr, ptr %2, align 8, !tbaa !31
  %41 = getelementptr inbounds nuw %struct.AVFilterLink, ptr %40, i32 0, i32 11
  %42 = load i32, ptr %41, align 8, !tbaa !44
  %43 = load ptr, ptr %2, align 8, !tbaa !31
  %44 = getelementptr inbounds nuw %struct.AVFilterLink, ptr %43, i32 0, i32 13
  %45 = getelementptr inbounds nuw %struct.AVRational, ptr %44, i32 0, i32 1
  store i32 %42, ptr %45, align 4, !tbaa !59
  br label %72

46:                                               ; preds = %31, %1
  %47 = load ptr, ptr %2, align 8, !tbaa !31
  %48 = getelementptr inbounds nuw %struct.AVFilterLink, ptr %47, i32 0, i32 13
  call void @llvm.memcpy.p0.p0.i64(ptr align 8 %48, ptr align 4 %6, i64 8, i1 false), !tbaa.struct !55
  %49 = load ptr, ptr %4, align 8, !tbaa !24
  %50 = getelementptr inbounds nuw %struct.ASetRateContext, ptr %49, i32 0, i32 2
  store i32 1, ptr %50, align 4, !tbaa !51
  %51 = load i64, ptr %6, align 4
  %52 = call nsz double @av_q2d(i64 %51)
  %53 = load i32, ptr %7, align 4, !tbaa !28
  %54 = load ptr, ptr %2, align 8, !tbaa !31
  %55 = getelementptr inbounds nuw %struct.AVFilterLink, ptr %54, i32 0, i32 11
  %56 = load i32, ptr %55, align 8, !tbaa !44
  %57 = icmp sgt i32 %53, %56
  br i1 %57, label %58, label %60

58:                                               ; preds = %46
  %59 = load i32, ptr %7, align 4, !tbaa !28
  br label %64

60:                                               ; preds = %46
  %61 = load ptr, ptr %2, align 8, !tbaa !31
  %62 = getelementptr inbounds nuw %struct.AVFilterLink, ptr %61, i32 0, i32 11
  %63 = load i32, ptr %62, align 8, !tbaa !44
  br label %64

64:                                               ; preds = %60, %58
  %65 = phi i32 [ %59, %58 ], [ %63, %60 ]
  %66 = sitofp i32 %65 to double
  %67 = fdiv nsz double 1.000000e+00, %66
  %68 = fcmp nsz ogt double %52, %67
  br i1 %68, label %69, label %71

69:                                               ; preds = %64
  %70 = load ptr, ptr %3, align 8, !tbaa !4
  call void (ptr, i32, ptr, ...) @av_log(ptr noundef %70, i32 noundef 24, ptr noundef @.str.3)
  br label %71

71:                                               ; preds = %69, %64
  br label %72

72:                                               ; preds = %71, %36
  call void @llvm.lifetime.end.p0(i64 4, ptr %7) #7
  call void @llvm.lifetime.end.p0(i64 8, ptr %6) #7
  call void @llvm.lifetime.end.p0(i64 8, ptr %5) #7
  call void @llvm.lifetime.end.p0(i64 8, ptr %4) #7
  call void @llvm.lifetime.end.p0(i64 8, ptr %3) #7
  ret i32 0
}