; Function Attrs: cold nounwind optsize uwtable
define internal noundef i32 @config_props(ptr noundef captures(none) initializes((96, 104)) %0) #0 {
  %2 = load ptr, ptr %0, align 8, !tbaa !46
  %3 = getelementptr inbounds nuw i8, ptr %2, i64 32
  %4 = load ptr, ptr %3, align 8, !tbaa !47
  %5 = load ptr, ptr %4, align 8, !tbaa !35
  %6 = getelementptr inbounds nuw i8, ptr %5, i64 96
  %.sroa.0.0.copyload = load i32, ptr %6, align 8, !tbaa !22
  %.sroa.6.0..sroa_idx = getelementptr inbounds nuw i8, ptr %5, i64 100
  %.sroa.6.0.copyload = load i32, ptr %.sroa.6.0..sroa_idx, align 4, !tbaa !22
  %7 = getelementptr inbounds nuw i8, ptr %5, i64 64
  %8 = load i32, ptr %7, align 8, !tbaa !37
  %9 = icmp eq i32 %.sroa.0.0.copyload, 1
  %10 = icmp eq i32 %.sroa.6.0.copyload, %8
  %or.cond = select i1 %9, i1 %10, i1 false
  %11 = getelementptr inbounds nuw i8, ptr %0, i64 100
  br i1 %or.cond, label %12, label %16

12:                                               ; preds = %1
  %13 = getelementptr inbounds nuw i8, ptr %0, i64 96
  store i32 1, ptr %13, align 8, !tbaa !48
  %14 = getelementptr inbounds nuw i8, ptr %0, i64 64
  %15 = load i32, ptr %14, align 8, !tbaa !37
  store i32 %15, ptr %11, align 4, !tbaa !49
  br label %30

16:                                               ; preds = %1
  %17 = getelementptr inbounds nuw i8, ptr %2, i64 72
  %18 = load ptr, ptr %17, align 8, !tbaa !4
  %19 = getelementptr inbounds nuw i8, ptr %0, i64 96
  store i32 %.sroa.0.0.copyload, ptr %19, align 8, !tbaa !22
  store i32 %.sroa.6.0.copyload, ptr %11, align 4, !tbaa !22
  %20 = getelementptr inbounds nuw i8, ptr %18, i64 12
  store i32 1, ptr %20, align 4, !tbaa !44
  %21 = sitofp i32 %.sroa.0.0.copyload to double
  %22 = sitofp i32 %.sroa.6.0.copyload to double
  %23 = fdiv nsz double %21, %22
  %24 = getelementptr inbounds nuw i8, ptr %0, i64 64
  %25 = load i32, ptr %24, align 8, !tbaa !37
  %. = tail call i32 @llvm.smax.i32(i32 %8, i32 %25)
  %26 = sitofp i32 %. to double
  %27 = fdiv nsz double 1.000000e+00, %26
  %28 = fcmp nsz ogt double %23, %27
  br i1 %28, label %29, label %30

29:                                               ; preds = %16
  tail call void (ptr, i32, ptr, ...) @av_log(ptr noundef nonnull %2, i32 noundef 24, ptr noundef nonnull @.str.3) #6
  br label %30

30:                                               ; preds = %16, %29, %12
  ret i32 0
}